target datalayout = "e-m:e-p270:32:32-p271:32:32-p272:64:64-i64:64-i128:128-f80:128-n8:16:32:64-S128"
target triple = "x86_64-pc-linux-gnu"

%union.ufmt_args = type { i64 }
%struct.u_scanf_spec_info = type { i32, i16, i16, i8, i8, i8, i8, i8, i8 }
%struct.UFILE = type { ptr, ptr, ptr, %struct.u_localized_string, [1024 x i16], i8, i32 }
%struct.u_localized_string = type { ptr, ptr, ptr, %struct.ULocaleBundle }
%struct.ULocaleBundle = type { ptr, [5 x ptr], i8 }

; Function Attrs: mustprogress uwtable
define internal noundef i32 @_ZL23u_scanf_skip_leading_wsP5UFILEDs(ptr noundef %0, i16 noundef zeroext %1) #0 {
  %3 = alloca ptr, align 8
  %4 = alloca i16, align 2
  %5 = alloca i16, align 2
  %6 = alloca i32, align 4
  %7 = alloca i8, align 1
  store ptr %0, ptr %3, align 8, !tbaa !3
  store i16 %1, ptr %4, align 2, !tbaa !14
  call void @llvm.lifetime.start.p0(i64 2, ptr %5) #5
  call void @llvm.lifetime.start.p0(i64 4, ptr %6) #5
  store i32 0, ptr %6, align 4, !tbaa !12
  call void @llvm.lifetime.start.p0(i64 1, ptr %7) #5
  br label %8

8:                                                ; preds = %28, %2
  %9 = load ptr, ptr %3, align 8, !tbaa !3
  %10 = call signext i8 @ufile_getch_77(ptr noundef %9, ptr noundef %5)
  store i8 %10, ptr %7, align 1, !tbaa !28
  %11 = sext i8 %10 to i32
  %12 = icmp eq i32 %11, 1
  br i1 %12, label %13, label %26

13:                                               ; preds = %8
  %14 = load i16, ptr %5, align 2, !tbaa !14
  %15 = zext i16 %14 to i32
  %16 = load i16, ptr %4, align 2, !tbaa !14
  %17 = zext i16 %16 to i32
  %18 = icmp eq i32 %15, %17
  br i1 %18, label %24, label %19

19:                                               ; preds = %13
  %20 = load i16, ptr %5, align 2, !tbaa !14
  %21 = zext i16 %20 to i32
  %22 = call signext i8 @u_isWhitespace_77(i32 noundef %21)
  %23 = icmp ne i8 %22, 0
  br label %24

24:                                               ; preds = %19, %13
  %25 = phi i1 [ true, %13 ], [ %23, %19 ]
  br label %26

26:                                               ; preds = %24, %8
  %27 = phi i1 [ false, %8 ], [ %25, %24 ]
  br i1 %27, label %28, label %31

28:                                               ; preds = %26
  %29 = load i32, ptr %6, align 4, !tbaa !12
  %30 = add nsw i32 %29, 1
  store i32 %30, ptr %6, align 4, !tbaa !12
  br label %8, !llvm.loop !82

31:                                               ; preds = %26
  %32 = load i8, ptr %7, align 1, !tbaa !28
  %33 = icmp ne i8 %32, 0
  br i1 %33, label %34, label %39

34:                                               ; preds = %31
  %35 = load i16, ptr %5, align 2, !tbaa !14
  %36 = zext i16 %35 to i32
  %37 = load ptr, ptr %3, align 8, !tbaa !3
  %38 = call i32 @u_fungetc_77(i32 noundef %36, ptr noundef %37)
  br label %39

39:                                               ; preds = %34, %31
  %40 = load i32, ptr %6, align 4, !tbaa !12
  call void @llvm.lifetime.end.p0(i64 1, ptr %7) #5
  call void @llvm.lifetime.end.p0(i64 4, ptr %6) #5
  call void @llvm.lifetime.end.p0(i64 2, ptr %5) #5
  ret i32 %40
}

; Function Attrs: mustprogress uwtable
define internal noundef i32 @_ZL22u_scanf_double_handlerP5UFILEP17u_scanf_spec_infoP9ufmt_argsPKDsPiS7_(ptr noundef %0, ptr noundef %1, ptr noundef %2, ptr noundef %3, ptr noundef %4, ptr noundef %5) #0 {
  %7 = alloca i32, align 4
  %8 = alloca ptr, align 8
  %9 = alloca ptr, align 8
  %10 = alloca ptr, align 8
  %11 = alloca ptr, align 8
  %12 = alloca ptr, align 8
  %13 = alloca ptr, align 8
  %14 = alloca i32, align 4
  %15 = alloca double, align 8
  %16 = alloca ptr, align 8
  %17 = alloca i32, align 4
  %18 = alloca i32, align 4
  %19 = alloca i32, align 4
  %20 = alloca i32, align 4
  store ptr %0, ptr %8, align 8, !tbaa !3
  store ptr %1, ptr %9, align 8, !tbaa !35
  store ptr %2, ptr %10, align 8, !tbaa !50
  store ptr %3, ptr %11, align 8, !tbaa !8
  store ptr %4, ptr %12, align 8, !tbaa !52
  store ptr %5, ptr %13, align 8, !tbaa !52
  call void @llvm.lifetime.start.p0(i64 4, ptr %14) #5
  call void @llvm.lifetime.start.p0(i64 8, ptr %15) #5
  call void @llvm.lifetime.start.p0(i64 8, ptr %16) #5
  call void @llvm.lifetime.start.p0(i64 4, ptr %17) #5
  store i32 0, ptr %17, align 4, !tbaa !12
  call void @llvm.lifetime.start.p0(i64 4, ptr %18) #5
  call void @llvm.lifetime.start.p0(i64 4, ptr %19) #5
  store i32 0, ptr %19, align 4, !tbaa !54
  %21 = load ptr, ptr %8, align 8, !tbaa !3
  %22 = load ptr, ptr %9, align 8, !tbaa !35
  %23 = getelementptr inbounds nuw %struct.u_scanf_spec_info, ptr %22, i32 0, i32 2
  %24 = load i16, ptr %23, align 2, !tbaa !40
  %25 = call noundef i32 @_ZL23u_scanf_skip_leading_wsP5UFILEDs(ptr noundef %21, i16 noundef zeroext %24)
  store i32 %25, ptr %18, align 4, !tbaa !12
  %26 = load ptr, ptr %8, align 8, !tbaa !3
  call void @_Z26ufile_fill_uchar_buffer_77P5UFILE(ptr noundef %26)
  %27 = load ptr, ptr %8, align 8, !tbaa !3
  %28 = getelementptr inbounds nuw %struct.UFILE, ptr %27, i32 0, i32 3
  %29 = getelementptr inbounds nuw %struct.u_localized_string, ptr %28, i32 0, i32 1
  %30 = load ptr, ptr %29, align 8, !tbaa !56
  %31 = load ptr, ptr %8, align 8, !tbaa !3
  %32 = getelementptr inbounds nuw %struct.UFILE, ptr %31, i32 0, i32 3
  %33 = getelementptr inbounds nuw %struct.u_localized_string, ptr %32, i32 0, i32 0
  %34 = load ptr, ptr %33, align 8, !tbaa !63
  %35 = ptrtoint ptr %30 to i64
  %36 = ptrtoint ptr %34 to i64
  %37 = sub i64 %35, %36
  %38 = sdiv exact i64 %37, 2
  %39 = trunc i64 %38 to i32
  store i32 %39, ptr %14, align 4, !tbaa !12
  %40 = load ptr, ptr %9, align 8, !tbaa !35
  %41 = getelementptr inbounds nuw %struct.u_scanf_spec_info, ptr %40, i32 0, i32 0
  %42 = load i32, ptr %41, align 4, !tbaa !38
  %43 = icmp ne i32 %42, -1
  br i1 %43, label %44, label %58

44:                                               ; preds = %6
  %45 = load i32, ptr %14, align 4, !tbaa !12
  %46 = load ptr, ptr %9, align 8, !tbaa !35
  %47 = getelementptr inbounds nuw %struct.u_scanf_spec_info, ptr %46, i32 0, i32 0
  %48 = load i32, ptr %47, align 4, !tbaa !38
  %49 = icmp slt i32 %45, %48
  br i1 %49, label %50, label %52

50:                                               ; preds = %44
  %51 = load i32, ptr %14, align 4, !tbaa !12
  br label %56

52:                                               ; preds = %44
  %53 = load ptr, ptr %9, align 8, !tbaa !35
  %54 = getelementptr inbounds nuw %struct.u_scanf_spec_info, ptr %53, i32 0, i32 0
  %55 = load i32, ptr %54, align 4, !tbaa !38
  br label %56

56:                                               ; preds = %52, %50
  %57 = phi i32 [ %51, %50 ], [ %55, %52 ]
  store i32 %57, ptr %14, align 4, !tbaa !12
  br label %58

58:                                               ; preds = %56, %6
  %59 = load ptr, ptr %8, align 8, !tbaa !3
  %60 = getelementptr inbounds nuw %struct.UFILE, ptr %59, i32 0, i32 3
  %61 = getelementptr inbounds nuw %struct.u_localized_string, ptr %60, i32 0, i32 3
  %62 = call ptr @u_locbund_getNumberFormat_77(ptr noundef %61, i32 noundef 1)
  store ptr %62, ptr %16, align 8, !tbaa !64
  %63 = load ptr, ptr %16, align 8, !tbaa !64
  %64 = icmp eq ptr %63, null
  br i1 %64, label %65, label %66

65:                                               ; preds = %58
  store i32 0, ptr %7, align 4
  store i32 1, ptr %20, align 4
  br label %130

66:                                               ; preds = %58
  %67 = load ptr, ptr %8, align 8, !tbaa !3
  %68 = load ptr, ptr %16, align 8, !tbaa !64
  %69 = call noundef i32 @_ZL34u_scanf_skip_leading_positive_signP5UFILEPPvP10UErrorCode(ptr noundef %67, ptr noundef %68, ptr noundef %19)
  %70 = load i32, ptr %18, align 4, !tbaa !12
  %71 = add nsw i32 %70, %69
  store i32 %71, ptr %18, align 4, !tbaa !12
  %72 = load ptr, ptr %16, align 8, !tbaa !64
  %73 = load ptr, ptr %8, align 8, !tbaa !3
  %74 = getelementptr inbounds nuw %struct.UFILE, ptr %73, i32 0, i32 3
  %75 = getelementptr inbounds nuw %struct.u_localized_string, ptr %74, i32 0, i32 0
  %76 = load ptr, ptr %75, align 8, !tbaa !63
  %77 = load i32, ptr %14, align 4, !tbaa !12
  %78 = call double @unum_parseDouble_77(ptr noundef %72, ptr noundef %76, i32 noundef %77, ptr noundef %17, ptr noundef %19)
  store double %78, ptr %15, align 8, !tbaa !67
  %79 = load ptr, ptr %9, align 8, !tbaa !35
  %80 = getelementptr inbounds nuw %struct.u_scanf_spec_info, ptr %79, i32 0, i32 3
  %81 = load i8, ptr %80, align 4, !tbaa !41
  %82 = icmp ne i8 %81, 0
  br i1 %82, label %112, label %83

83:                                               ; preds = %66
  %84 = load ptr, ptr %9, align 8, !tbaa !35
  %85 = getelementptr inbounds nuw %struct.u_scanf_spec_info, ptr %84, i32 0, i32 6
  %86 = load i8, ptr %85, align 1, !tbaa !44
  %87 = icmp ne i8 %86, 0
  br i1 %87, label %88, label %93

88:                                               ; preds = %83
  %89 = load double, ptr %15, align 8, !tbaa !67
  %90 = load ptr, ptr %10, align 8, !tbaa !50
  %91 = getelementptr inbounds %union.ufmt_args, ptr %90, i64 0
  %92 = load ptr, ptr %91, align 8, !tbaa !28
  store double %89, ptr %92, align 8, !tbaa !67
  br label %111

93:                                               ; preds = %83
  %94 = load ptr, ptr %9, align 8, !tbaa !35
  %95 = getelementptr inbounds nuw %struct.u_scanf_spec_info, ptr %94, i32 0, i32 4
  %96 = load i8, ptr %95, align 1, !tbaa !42
  %97 = icmp ne i8 %96, 0
  br i1 %97, label %98, label %104

98:                                               ; preds = %93
  %99 = load double, ptr %15, align 8, !tbaa !67
  %100 = fpext double %99 to x86_fp80
  %101 = load ptr, ptr %10, align 8, !tbaa !50
  %102 = getelementptr inbounds %union.ufmt_args, ptr %101, i64 0
  %103 = load ptr, ptr %102, align 8, !tbaa !28
  store x86_fp80 %100, ptr %103, align 16, !tbaa !69
  br label %110

104:                                              ; preds = %93
  %105 = load double, ptr %15, align 8, !tbaa !67
  %106 = fptrunc double %105 to float
  %107 = load ptr, ptr %10, align 8, !tbaa !50
  %108 = getelementptr inbounds %union.ufmt_args, ptr %107, i64 0
  %109 = load ptr, ptr %108, align 8, !tbaa !28
  store float %106, ptr %109, align 4, !tbaa !71
  br label %110

110:                                              ; preds = %104, %98
  br label %111

111:                                              ; preds = %110, %88
  br label %112

112:                                              ; preds = %111, %66
  %113 = load i32, ptr %17, align 4, !tbaa !12
  %114 = load ptr, ptr %8, align 8, !tbaa !3
  %115 = getelementptr inbounds nuw %struct.UFILE, ptr %114, i32 0, i32 3
  %116 = getelementptr inbounds nuw %struct.u_localized_string, ptr %115, i32 0, i32 0
  %117 = load ptr, ptr %116, align 8, !tbaa !63
  %118 = sext i32 %113 to i64
  %119 = getelementptr inbounds i16, ptr %117, i64 %118
  store ptr %119, ptr %116, align 8, !tbaa !63
  %120 = load ptr, ptr %9, align 8, !tbaa !35
  %121 = getelementptr inbounds nuw %struct.u_scanf_spec_info, ptr %120, i32 0, i32 3
  %122 = load i8, ptr %121, align 4, !tbaa !41
  %123 = icmp ne i8 %122, 0
  %124 = xor i1 %123, true
  %125 = zext i1 %124 to i32
  %126 = load ptr, ptr %13, align 8, !tbaa !52
  store i32 %125, ptr %126, align 4, !tbaa !12
  %127 = load i32, ptr %17, align 4, !tbaa !12
  %128 = load i32, ptr %18, align 4, !tbaa !12
  %129 = add nsw i32 %127, %128
  store i32 %129, ptr %7, align 4
  store i32 1, ptr %20, align 4
  br label %130

130:                                              ; preds = %112, %65
  call void @llvm.lifetime.end.p0(i64 4, ptr %19) #5
  call void @llvm.lifetime.end.p0(i64 4, ptr %18) #5
  call void @llvm.lifetime.end.p0(i64 4, ptr %17) #5
  call void @llvm.lifetime.end.p0(i64 8, ptr %16) #5
  call void @llvm.lifetime.end.p0(i64 8, ptr %15) #5
  call void @llvm.lifetime.end.p0(i64 4, ptr %14) #5
  %131 = load i32, ptr %7, align 4
  ret i32 %131
}