; Function Attrs: mustprogress uwtable
define internal noundef i32 @_ZL22u_scanf_double_handlerP5UFILEP17u_scanf_spec_infoP9ufmt_argsPKDsPiS7_(ptr noundef %0, ptr noundef readonly captures(none) %1, ptr noundef readonly captures(none) %2, ptr readnone captures(none) %3, ptr readnone captures(none) %4, ptr noundef writeonly captures(none) %5) #0 {
  %7 = alloca i16, align 2
  %8 = alloca i32, align 4
  %9 = alloca i32, align 4
  call void @llvm.lifetime.start.p0(i64 4, ptr nonnull %8) #6
  store i32 0, ptr %8, align 4, !tbaa !3
  call void @llvm.lifetime.start.p0(i64 4, ptr nonnull %9) #6
  store i32 0, ptr %9, align 4, !tbaa !36
  %10 = getelementptr inbounds nuw i8, ptr %1, i64 6
  %11 = load i16, ptr %10, align 2, !tbaa !16
  call void @llvm.lifetime.start.p0(i64 2, ptr nonnull %7) #6
  br label %12

12:                                               ; preds = %.critedge2.i, %6
  %.0.i = phi i32 [ 0, %6 ], [ %20, %.critedge2.i ]
  %13 = call signext i8 @ufile_getch_77(ptr noundef %0, ptr noundef nonnull %7)
  switch i8 %13, label %.critedge.i [
    i8 1, label %14
    i8 0, label %_ZL23u_scanf_skip_leading_wsP5UFILEDs.exit
  ]

14:                                               ; preds = %12
  %15 = load i16, ptr %7, align 2, !tbaa !7
  %16 = icmp eq i16 %15, %11
  br i1 %16, label %.critedge2.i, label %17

17:                                               ; preds = %14
  %18 = zext i16 %15 to i32
  %19 = call signext i8 @u_isWhitespace_77(i32 noundef %18)
  %.not.i = icmp eq i8 %19, 0
  br i1 %.not.i, label %.critedge.i, label %.critedge2.i

.critedge2.i:                                     ; preds = %17, %14
  %20 = add nuw nsw i32 %.0.i, 1
  br label %12, !llvm.loop !38

.critedge.i:                                      ; preds = %17, %12
  %21 = load i16, ptr %7, align 2, !tbaa !7
  %22 = zext i16 %21 to i32
  %23 = call i32 @u_fungetc_77(i32 noundef %22, ptr noundef %0)
  br label %_ZL23u_scanf_skip_leading_wsP5UFILEDs.exit

_ZL23u_scanf_skip_leading_wsP5UFILEDs.exit:       ; preds = %12, %.critedge.i
  call void @llvm.lifetime.end.p0(i64 2, ptr nonnull %7) #6
  call void @_Z26ufile_fill_uchar_buffer_77P5UFILE(ptr noundef %0)
  %24 = getelementptr inbounds nuw i8, ptr %0, i64 24
  %25 = getelementptr inbounds nuw i8, ptr %0, i64 32
  %26 = load ptr, ptr %25, align 8, !tbaa !39
  %27 = load ptr, ptr %24, align 8, !tbaa !47
  %28 = load i32, ptr %1, align 4, !tbaa !14
  %29 = getelementptr inbounds nuw i8, ptr %0, i64 48
  %30 = call ptr @u_locbund_getNumberFormat_77(ptr noundef nonnull %29, i32 noundef 1)
  %31 = icmp eq ptr %30, null
  br i1 %31, label %64, label %32

32:                                               ; preds = %_ZL23u_scanf_skip_leading_wsP5UFILEDs.exit
  %.not = icmp eq i32 %28, -1
  %33 = ptrtoint ptr %26 to i64
  %34 = ptrtoint ptr %27 to i64
  %35 = sub i64 %33, %34
  %36 = lshr exact i64 %35, 1
  %37 = trunc i64 %36 to i32
  %. = call i32 @llvm.smin.i32(i32 %28, i32 %37)
  %.031 = select i1 %.not, i32 %37, i32 %.
  %38 = call fastcc noundef i32 @_ZL34u_scanf_skip_leading_positive_signP5UFILEPPvP10UErrorCode(ptr noundef nonnull %0, ptr noundef nonnull %30, i32 0)
  %39 = add nsw i32 %38, %.0.i
  %40 = load ptr, ptr %24, align 8, !tbaa !47
  %41 = call double @unum_parseDouble_77(ptr noundef nonnull %30, ptr noundef %40, i32 noundef %.031, ptr noundef nonnull %8, ptr noundef nonnull %9)
  %42 = getelementptr inbounds nuw i8, ptr %1, i64 8
  %43 = load i8, ptr %42, align 4, !tbaa !19
  %.not35 = icmp eq i8 %43, 0
  br i1 %.not35, label %44, label %57

44:                                               ; preds = %32
  %45 = getelementptr inbounds nuw i8, ptr %1, i64 11
  %46 = load i8, ptr %45, align 1, !tbaa !24
  %.not36 = icmp eq i8 %46, 0
  br i1 %.not36, label %49, label %47

47:                                               ; preds = %44
  %48 = load ptr, ptr %2, align 8, !tbaa !33
  store double %41, ptr %48, align 8, !tbaa !49
  br label %57

49:                                               ; preds = %44
  %50 = getelementptr inbounds nuw i8, ptr %1, i64 9
  %51 = load i8, ptr %50, align 1, !tbaa !25
  %.not37 = icmp eq i8 %51, 0
  %52 = load ptr, ptr %2, align 8, !tbaa !33
  br i1 %.not37, label %55, label %53

53:                                               ; preds = %49
  %54 = fpext double %41 to x86_fp80
  store x86_fp80 %54, ptr %52, align 16, !tbaa !51
  br label %57

55:                                               ; preds = %49
  %56 = fptrunc double %41 to float
  store float %56, ptr %52, align 4, !tbaa !53
  br label %57

57:                                               ; preds = %47, %55, %53, %32
  %58 = load i32, ptr %8, align 4, !tbaa !3
  %59 = load ptr, ptr %24, align 8, !tbaa !47
  %60 = sext i32 %58 to i64
  %61 = getelementptr inbounds i16, ptr %59, i64 %60
  store ptr %61, ptr %24, align 8, !tbaa !47
  %62 = zext i1 %.not35 to i32
  store i32 %62, ptr %5, align 4, !tbaa !3
  %63 = add nsw i32 %39, %58
  br label %64

64:                                               ; preds = %_ZL23u_scanf_skip_leading_wsP5UFILEDs.exit, %57
  %.0 = phi i32 [ %63, %57 ], [ 0, %_ZL23u_scanf_skip_leading_wsP5UFILEDs.exit ]
  call void @llvm.lifetime.end.p0(i64 4, ptr nonnull %9) #6
  call void @llvm.lifetime.end.p0(i64 4, ptr nonnull %8) #6
  ret i32 %.0
}